Certificate:
    Data:
        Version: 3 (0x2)
        Serial Number: 113 (0x71)
    Signature Algorithm: sha256WithRSAEncryption
        Issuer: C=CH, O=HEIG-VD, CN=HEIG-VDRoot
        Validity
            Not Before: Jan 27 06:17:19 2021 GMT
            Not After : Jan 27 06:17:19 2031 GMT
        Subject: C=CH, O=HEIG-VD, CN=Issolah-TLS
        Subject Public Key Info:
            Public Key Algorithm: rsaEncryption
                Public-Key: (2048 bit)
                Modulus:
                    00:b8:b1:2b:46:3e:37:05:cb:fe:76:fe:0d:82:9b:
                    3a:79:d2:4d:39:bf:fc:de:d6:c0:26:bc:44:a0:77:
                    39:13:ad:09:3c:67:4a:7d:6d:64:c8:4a:fe:da:11:
                    60:99:5a:f9:c0:37:17:24:88:a7:48:84:21:b6:7f:
                    a7:d2:9f:ac:a1:c5:c4:73:a9:66:4a:93:f7:f0:d2:
                    5c:6d:4b:8e:1f:74:1e:f3:79:43:e2:cf:02:b5:4f:
                    47:14:a5:bb:31:33:19:e5:03:34:6c:8a:60:40:ad:
                    37:5e:83:53:6c:d4:b1:e2:4f:9e:b7:59:91:6d:56:
                    40:1a:d0:44:9d:1e:e4:39:af:d4:8c:97:de:eb:33:
                    09:bb:b3:ac:05:5e:31:7e:6b:15:16:e1:19:42:c2:
                    c8:34:85:17:15:aa:5a:d5:df:bb:68:71:c5:6f:ce:
                    90:1b:ed:cd:58:be:5c:2e:6d:62:91:04:d3:69:60:
                    13:72:14:ee:e9:9e:bb:92:b2:1b:70:d3:d9:99:10:
                    b7:43:d6:18:34:e8:27:9a:4a:ef:e4:d5:c9:c1:3f:
                    db:10:54:fb:5f:c4:a8:da:53:0c:1d:6e:b6:45:c4:
                    25:2b:14:76:86:66:47:ef:81:27:85:86:17:9b:9b:
                    04:dd:bb:c3:8f:ec:e9:0d:cd:1c:9d:89:7a:1e:0c:
                    ba:dd
                Exponent: 65537 (0x10001)
        X509v3 extensions:
            X509v3 Key Usage: critical
                Certificate Sign, CRL Sign
            X509v3 Basic Constraints: critical
                CA:TRUE, pathlen:0
            X509v3 Subject Key Identifier: 
                BF:F6:CD:82:B4:78:89:E5:BD:00:CA:35:A0:04:A1:32:18:53:79:86
            X509v3 Authority Key Identifier: 
                keyid:FD:A3:2A:19:D0:42:65:EF:13:A6:0C:60:ED:66:DE:86:12:82:EC:76

    Signature Algorithm: sha256WithRSAEncryption
         46:28:41:76:13:cd:ba:35:f8:f9:0c:6c:52:f4:31:7f:d0:10:
         b9:31:c6:fb:e7:51:f0:c7:8c:bc:7d:a9:5c:9e:ae:49:15:4c:
         56:ea:57:8a:7b:e4:11:b2:26:92:07:60:f0:9d:ba:88:13:f5:
         c3:75:fc:01:06:67:94:4b:ca:e9:e0:ab:ea:cf:39:41:eb:18:
         0f:fd:d6:60:46:c0:ae:78:36:03:56:77:e4:47:9f:87:d1:ae:
         8a:cf:2f:b1:66:f0:fd:c0:3d:ec:96:9b:83:4f:d1:ce:07:02:
         38:bd:13:41:45:2f:57:e4:cc:9d:b2:e0:1a:20:9a:70:7d:34:
         8e:d1:2a:d4:8b:d3:5f:b0:5c:5b:0c:b6:d3:fb:86:a3:d6:76:
         e8:9a:eb:58:54:78:32:67:78:e7:3f:f8:74:84:b9:6f:5c:54:
         9f:b7:1c:b2:ff:6d:58:bd:71:b1:5f:06:2c:64:52:6f:6d:12:
         0b:c3:1a:86:73:0c:85:7f:8c:1d:ff:4c:7c:3d:a5:32:3b:0b:
         36:65:d2:cf:23:b3:d3:d6:c9:ad:53:ee:dc:9c:d9:7b:b4:0c:
         28:66:a1:af:27:e4:76:54:68:57:d5:35:fb:5c:1a:1b:ac:e9:
         42:63:f6:6c:f1:8e:0a:ec:09:73:c9:62:e7:9e:f0:fe:85:43:
         3e:6f:64:a9
-----BEGIN CERTIFICATE-----
MIIDSzCCAjOgAwIBAgIBcTANBgkqhkiG9w0BAQsFADA1MQswCQYDVQQGEwJDSDEQ
MA4GA1UECgwHSEVJRy1WRDEUMBIGA1UEAwwLSEVJRy1WRFJvb3QwHhcNMjEwMTI3
MDYxNzE5WhcNMzEwMTI3MDYxNzE5WjA1MQswCQYDVQQGEwJDSDEQMA4GA1UECgwH
SEVJRy1WRDEUMBIGA1UEAwwLSXNzb2xhaC1UTFMwggEiMA0GCSqGSIb3DQEBAQUA
A4IBDwAwggEKAoIBAQC4sStGPjcFy/52/g2Cmzp50k05v/ze1sAmvESgdzkTrQk8
Z0p9bWTISv7aEWCZWvnANxckiKdIhCG2f6fSn6yhxcRzqWZKk/fw0lxtS44fdB7z
eUPizwK1T0cUpbsxMxnlAzRsimBArTdeg1Ns1LHiT563WZFtVkAa0ESdHuQ5r9SM
l97rMwm7s6wFXjF+axUW4RlCwsg0hRcVqlrV37toccVvzpAb7c1YvlwubWKRBNNp
YBNyFO7pnruSshtw09mZELdD1hg06CeaSu/k1cnBP9sQVPtfxKjaUwwdbrZFxCUr
FHaGZkfvgSeFhhebmwTdu8OP7OkNzRydiXoeDLrdAgMBAAGjZjBkMA4GA1UdDwEB
/wQEAwIBBjASBgNVHRMBAf8ECDAGAQH/AgEAMB0GA1UdDgQWBBS/9s2CtHiJ5b0A
yjWgBKEyGFN5hjAfBgNVHSMEGDAWgBT9oyoZ0EJl7xOmDGDtZt6GEoLsdjANBgkq
hkiG9w0BAQsFAAOCAQEARihBdhPNujX4+QxsUvQxf9AQuTHG++dR8MeMvH2pXJ6u
SRVMVupXinvkEbImkgdg8J26iBP1w3X8AQZnlEvK6eCr6s85QesYD/3WYEbArng2
A1Z35Eefh9Guis8vsWbw/cA97Jabg0/RzgcCOL0TQUUvV+TMnbLgGiCacH00jtEq
1IvTX7BcWwy20/uGo9Z26JrrWFR4Mmd45z/4dIS5b1xUn7ccsv9tWL1xsV8GLGRS
b20SC8MahnMMhX+MHf9MfD2lMjsLNmXSzyOz09bJrVPu3JzZe7QMKGahryfkdlRo
V9U1+1waG6zpQmP2bPGOCuwJc8li557w/oVDPm9kqQ==
-----END CERTIFICATE-----

